target datalayout = "e-m:e-p270:32:32-p271:32:32-p272:64:64-i64:64-i128:128-f80:128-n8:16:32:64-S128"
target triple = "x86_64-pc-linux-gnu"

@H5P_CLS_FILE_CREATE_ID_g = external global i64, align 8
@H5_libinit_g = external global i8, align 1
@H5_libterm_g = external global i8, align 1
@.str.1 = private unnamed_addr constant [101 x i8] c"generated/home/dtcxzyw/WorkSpace/Projects/compilers/llvm-opt-benchmark/bench/hdf5/hdf5/src/H5Pfcpl.c\00", align 1
@H5E_FUNC_g = external global i64, align 8
@H5E_CANTINIT_g = external global i64, align 8
@.str.2 = private unnamed_addr constant [30 x i8] c"library initialization failed\00", align 1
@H5E_CANTSET_g = external global i64, align 8
@.str.3 = private unnamed_addr constant [22 x i8] c"can't set API context\00", align 1
@H5E_ARGS_g = external global i64, align 8
@H5E_BADVALUE_g = external global i64, align 8
@H5E_ID_g = external global i64, align 8
@H5E_BADID_g = external global i64, align 8
@.str.6 = private unnamed_addr constant [25 x i8] c"can't find object for ID\00", align 1
@H5E_PLIST_g = external global i64, align 8
@H5E_CANTGET_g = external global i64, align 8
@.str.18 = private unnamed_addr constant [47 x i8] c"istore IK value exceeds maximum B-tree entries\00", align 1
@.str.19 = private unnamed_addr constant [11 x i8] c"btree_rank\00", align 1
@.str.20 = private unnamed_addr constant [40 x i8] c"can't get rank for btree internal nodes\00", align 1
@__func__.H5Pset_istore_k = private unnamed_addr constant [16 x i8] c"H5Pset_istore_k\00", align 1
@.str.26 = private unnamed_addr constant [33 x i8] c"istore IK value must be positive\00", align 1
@.str.27 = private unnamed_addr constant [40 x i8] c"can't set rank for btree internal nodes\00", align 1

; Function Attrs: nounwind uwtable
define i32 @H5Pset_istore_k(i64 noundef %0, i32 noundef %1) #0 {
  %3 = alloca i64, align 8
  %4 = alloca i32, align 4
  %5 = alloca [2 x i32], align 4
  %6 = alloca ptr, align 8
  %7 = alloca i32, align 4
  %8 = alloca i8, align 1
  %9 = alloca i8, align 1
  store i64 %0, ptr %3, align 8
  store i32 %1, ptr %4, align 4
  store i32 0, ptr %7, align 4
  store i8 0, ptr %8, align 1
  store i8 0, ptr %9, align 1
  %10 = load i8, ptr @H5_libinit_g, align 1
  %11 = trunc i8 %10 to i1
  br i1 %11, label %16, label %12

12:                                               ; preds = %2
  %13 = load i8, ptr @H5_libterm_g, align 1
  %14 = trunc i8 %13 to i1
  %15 = xor i1 %14, true
  br label %16

16:                                               ; preds = %12, %2
  %17 = phi i1 [ false, %2 ], [ %15, %12 ]
  %18 = xor i1 %17, true
  %19 = xor i1 %18, true
  %20 = zext i1 %19 to i32
  %21 = sext i32 %20 to i64
  %22 = icmp ne i64 %21, 0
  br i1 %22, label %23, label %47

23:                                               ; preds = %16
  %24 = call i32 @H5_init_library()
  %25 = icmp slt i32 %24, 0
  %26 = xor i1 %25, true
  %27 = xor i1 %26, true
  %28 = zext i1 %27 to i32
  %29 = sext i32 %28 to i64
  %30 = icmp ne i64 %29, 0
  br i1 %30, label %31, label %46

31:                                               ; preds = %23
  br label %32

32:                                               ; preds = %31
  br label %33

33:                                               ; preds = %32
  br label %34

34:                                               ; preds = %33
  %35 = load i64, ptr @H5E_FUNC_g, align 8
  %36 = load i64, ptr @H5E_CANTINIT_g, align 8
  %37 = call i32 (ptr, ptr, i32, i64, i64, ptr, ...) @H5E_printf_stack(ptr noundef @.str.1, ptr noundef @__func__.H5Pset_istore_k, i32 noundef 583, i64 noundef %35, i64 noundef %36, ptr noundef @.str.2)
  br label %38

38:                                               ; preds = %34
  store i8 1, ptr %9, align 1
  %39 = load i8, ptr %9, align 1
  %40 = trunc i8 %39 to i1
  %41 = zext i1 %40 to i8
  store i8 %41, ptr %9, align 1
  br label %42

42:                                               ; preds = %38
  br label %43

43:                                               ; preds = %42
  store i32 -1, ptr %7, align 4
  br label %172

44:                                               ; No predecessors!
  br label %45

45:                                               ; preds = %44
  br label %46

46:                                               ; preds = %45, %23
  br label %47

47:                                               ; preds = %46, %16
  %48 = call i32 @H5CX_push()
  %49 = icmp slt i32 %48, 0
  %50 = xor i1 %49, true
  %51 = xor i1 %50, true
  %52 = zext i1 %51 to i32
  %53 = sext i32 %52 to i64
  %54 = icmp ne i64 %53, 0
  br i1 %54, label %55, label %70

55:                                               ; preds = %47
  br label %56

56:                                               ; preds = %55
  br label %57

57:                                               ; preds = %56
  br label %58

58:                                               ; preds = %57
  %59 = load i64, ptr @H5E_FUNC_g, align 8
  %60 = load i64, ptr @H5E_CANTSET_g, align 8
  %61 = call i32 (ptr, ptr, i32, i64, i64, ptr, ...) @H5E_printf_stack(ptr noundef @.str.1, ptr noundef @__func__.H5Pset_istore_k, i32 noundef 583, i64 noundef %59, i64 noundef %60, ptr noundef @.str.3)
  br label %62

62:                                               ; preds = %58
  store i8 1, ptr %9, align 1
  %63 = load i8, ptr %9, align 1
  %64 = trunc i8 %63 to i1
  %65 = zext i1 %64 to i8
  store i8 %65, ptr %9, align 1
  br label %66

66:                                               ; preds = %62
  br label %67

67:                                               ; preds = %66
  store i32 -1, ptr %7, align 4
  br label %172

68:                                               ; No predecessors!
  br label %69

69:                                               ; preds = %68
  br label %71

70:                                               ; preds = %47
  store i8 1, ptr %8, align 1
  br label %71

71:                                               ; preds = %70, %69
  %72 = call i32 @H5E_clear_stack()
  %73 = load i32, ptr %4, align 4
  %74 = icmp eq i32 %73, 0
  br i1 %74, label %75, label %90

75:                                               ; preds = %71
  br label %76

76:                                               ; preds = %75
  br label %77

77:                                               ; preds = %76
  br label %78

78:                                               ; preds = %77
  %79 = load i64, ptr @H5E_ARGS_g, align 8
  %80 = load i64, ptr @H5E_BADVALUE_g, align 8
  %81 = call i32 (ptr, ptr, i32, i64, i64, ptr, ...) @H5E_printf_stack(ptr noundef @.str.1, ptr noundef @__func__.H5Pset_istore_k, i32 noundef 587, i64 noundef %79, i64 noundef %80, ptr noundef @.str.26)
  br label %82

82:                                               ; preds = %78
  store i8 1, ptr %9, align 1
  %83 = load i8, ptr %9, align 1
  %84 = trunc i8 %83 to i1
  %85 = zext i1 %84 to i8
  store i8 %85, ptr %9, align 1
  br label %86

86:                                               ; preds = %82
  br label %87

87:                                               ; preds = %86
  store i32 -1, ptr %7, align 4
  br label %172

88:                                               ; No predecessors!
  br label %89

89:                                               ; preds = %88
  br label %90

90:                                               ; preds = %89, %71
  %91 = load i32, ptr %4, align 4
  %92 = mul i32 %91, 2
  %93 = icmp uge i32 %92, 65536
  br i1 %93, label %94, label %109

94:                                               ; preds = %90
  br label %95

95:                                               ; preds = %94
  br label %96

96:                                               ; preds = %95
  br label %97

97:                                               ; preds = %96
  %98 = load i64, ptr @H5E_ARGS_g, align 8
  %99 = load i64, ptr @H5E_BADVALUE_g, align 8
  %100 = call i32 (ptr, ptr, i32, i64, i64, ptr, ...) @H5E_printf_stack(ptr noundef @.str.1, ptr noundef @__func__.H5Pset_istore_k, i32 noundef 590, i64 noundef %98, i64 noundef %99, ptr noundef @.str.18)
  br label %101

101:                                              ; preds = %97
  store i8 1, ptr %9, align 1
  %102 = load i8, ptr %9, align 1
  %103 = trunc i8 %102 to i1
  %104 = zext i1 %103 to i8
  store i8 %104, ptr %9, align 1
  br label %105

105:                                              ; preds = %101
  br label %106

106:                                              ; preds = %105
  store i32 -1, ptr %7, align 4
  br label %172

107:                                              ; No predecessors!
  br label %108

108:                                              ; preds = %107
  br label %109

109:                                              ; preds = %108, %90
  %110 = load i64, ptr %3, align 8
  %111 = load i64, ptr @H5P_CLS_FILE_CREATE_ID_g, align 8
  %112 = call ptr @H5P_object_verify(i64 noundef %110, i64 noundef %111)
  store ptr %112, ptr %6, align 8
  %113 = icmp eq ptr null, %112
  br i1 %113, label %114, label %129

114:                                              ; preds = %109
  br label %115

115:                                              ; preds = %114
  br label %116

116:                                              ; preds = %115
  br label %117

117:                                              ; preds = %116
  %118 = load i64, ptr @H5E_ID_g, align 8
  %119 = load i64, ptr @H5E_BADID_g, align 8
  %120 = call i32 (ptr, ptr, i32, i64, i64, ptr, ...) @H5E_printf_stack(ptr noundef @.str.1, ptr noundef @__func__.H5Pset_istore_k, i32 noundef 594, i64 noundef %118, i64 noundef %119, ptr noundef @.str.6)
  br label %121

121:                                              ; preds = %117
  store i8 1, ptr %9, align 1
  %122 = load i8, ptr %9, align 1
  %123 = trunc i8 %122 to i1
  %124 = zext i1 %123 to i8
  store i8 %124, ptr %9, align 1
  br label %125

125:                                              ; preds = %121
  br label %126

126:                                              ; preds = %125
  store i32 -1, ptr %7, align 4
  br label %172

127:                                              ; No predecessors!
  br label %128

128:                                              ; preds = %127
  br label %129

129:                                              ; preds = %128, %109
  %130 = load ptr, ptr %6, align 8
  %131 = getelementptr inbounds [2 x i32], ptr %5, i64 0, i64 0
  %132 = call i32 @H5P_get(ptr noundef %130, ptr noundef @.str.19, ptr noundef %131)
  %133 = icmp slt i32 %132, 0
  br i1 %133, label %134, label %149

134:                                              ; preds = %129
  br label %135

135:                                              ; preds = %134
  br label %136

136:                                              ; preds = %135
  br label %137

137:                                              ; preds = %136
  %138 = load i64, ptr @H5E_PLIST_g, align 8
  %139 = load i64, ptr @H5E_CANTGET_g, align 8
  %140 = call i32 (ptr, ptr, i32, i64, i64, ptr, ...) @H5E_printf_stack(ptr noundef @.str.1, ptr noundef @__func__.H5Pset_istore_k, i32 noundef 598, i64 noundef %138, i64 noundef %139, ptr noundef @.str.20)
  br label %141

141:                                              ; preds = %137
  store i8 1, ptr %9, align 1
  %142 = load i8, ptr %9, align 1
  %143 = trunc i8 %142 to i1
  %144 = zext i1 %143 to i8
  store i8 %144, ptr %9, align 1
  br label %145

145:                                              ; preds = %141
  br label %146

146:                                              ; preds = %145
  store i32 -1, ptr %7, align 4
  br label %172

147:                                              ; No predecessors!
  br label %148

148:                                              ; preds = %147
  br label %149

149:                                              ; preds = %148, %129
  %150 = load i32, ptr %4, align 4
  %151 = getelementptr inbounds [2 x i32], ptr %5, i64 0, i64 1
  store i32 %150, ptr %151, align 4
  %152 = load ptr, ptr %6, align 8
  %153 = getelementptr inbounds [2 x i32], ptr %5, i64 0, i64 0
  %154 = call i32 @H5P_set(ptr noundef %152, ptr noundef @.str.19, ptr noundef %153)
  %155 = icmp slt i32 %154, 0
  br i1 %155, label %156, label %171

156:                                              ; preds = %149
  br label %157

157:                                              ; preds = %156
  br label %158

158:                                              ; preds = %157
  br label %159

159:                                              ; preds = %158
  %160 = load i64, ptr @H5E_PLIST_g, align 8
  %161 = load i64, ptr @H5E_CANTSET_g, align 8
  %162 = call i32 (ptr, ptr, i32, i64, i64, ptr, ...) @H5E_printf_stack(ptr noundef @.str.1, ptr noundef @__func__.H5Pset_istore_k, i32 noundef 601, i64 noundef %160, i64 noundef %161, ptr noundef @.str.27)
  br label %163

163:                                              ; preds = %159
  store i8 1, ptr %9, align 1
  %164 = load i8, ptr %9, align 1
  %165 = trunc i8 %164 to i1
  %166 = zext i1 %165 to i8
  store i8 %166, ptr %9, align 1
  br label %167

167:                                              ; preds = %163
  br label %168

168:                                              ; preds = %167
  store i32 -1, ptr %7, align 4
  br label %172

169:                                              ; No predecessors!
  br label %170

170:                                              ; preds = %169
  br label %171

171:                                              ; preds = %170, %149
  br label %172

172:                                              ; preds = %171, %168, %146, %126, %106, %87, %67, %43
  %173 = load i8, ptr %8, align 1
  %174 = trunc i8 %173 to i1
  %175 = xor i1 %174, true
  %176 = xor i1 %175, true
  %177 = zext i1 %176 to i32
  %178 = sext i32 %177 to i64
  %179 = icmp ne i64 %178, 0
  br i1 %179, label %180, label %182

180:                                              ; preds = %172
  %181 = call i32 @H5CX_pop(i1 noundef zeroext true)
  store i8 0, ptr %8, align 1
  br label %182

182:                                              ; preds = %180, %172
  %183 = load i8, ptr %9, align 1
  %184 = trunc i8 %183 to i1
  %185 = xor i1 %184, true
  %186 = xor i1 %185, true
  %187 = zext i1 %186 to i32
  %188 = sext i32 %187 to i64
  %189 = icmp ne i64 %188, 0
  br i1 %189, label %190, label %192

190:                                              ; preds = %182
  %191 = call i32 @H5E_dump_api_stack()
  br label %192

192:                                              ; preds = %190, %182
  %193 = load i32, ptr %7, align 4
  ret i32 %193
}