; Function Attrs: nounwind uwtable
define range(i32 -1, 1) i32 @H5Pset_istore_k(i64 noundef %0, i32 noundef %1) local_unnamed_addr #0 {
  %3 = alloca [2 x i32], align 4
  %4 = load i8, ptr @H5_libinit_g, align 1
  %5 = trunc i8 %4 to i1
  %6 = load i8, ptr @H5_libterm_g, align 1
  %7 = trunc i8 %6 to i1
  %8 = select i1 %5, i1 true, i1 %7
  br i1 %8, label %16, label %9

9:                                                ; preds = %2
  %10 = tail call i32 @H5_init_library() #6
  %11 = icmp slt i32 %10, 0
  br i1 %11, label %12, label %16

12:                                               ; preds = %9
  %13 = load i64, ptr @H5E_FUNC_g, align 8
  %14 = load i64, ptr @H5E_CANTINIT_g, align 8
  %15 = tail call i32 (ptr, ptr, i32, i64, i64, ptr, ...) @H5E_printf_stack(ptr noundef nonnull @.str.1, ptr noundef nonnull @__func__.H5Pset_istore_k, i32 noundef 583, i64 noundef %13, i64 noundef %14, ptr noundef nonnull @.str.2) #6
  br label %.thread27

16:                                               ; preds = %9, %2
  %17 = tail call i32 @H5CX_push() #6
  %18 = icmp slt i32 %17, 0
  br i1 %18, label %19, label %23

19:                                               ; preds = %16
  %20 = load i64, ptr @H5E_FUNC_g, align 8
  %21 = load i64, ptr @H5E_CANTSET_g, align 8
  %22 = tail call i32 (ptr, ptr, i32, i64, i64, ptr, ...) @H5E_printf_stack(ptr noundef nonnull @.str.1, ptr noundef nonnull @__func__.H5Pset_istore_k, i32 noundef 583, i64 noundef %20, i64 noundef %21, ptr noundef nonnull @.str.3) #6
  br label %.thread27

23:                                               ; preds = %16
  %24 = tail call i32 @H5E_clear_stack() #6
  %25 = icmp eq i32 %1, 0
  br i1 %25, label %26, label %30

26:                                               ; preds = %23
  %27 = load i64, ptr @H5E_ARGS_g, align 8
  %28 = load i64, ptr @H5E_BADVALUE_g, align 8
  %29 = tail call i32 (ptr, ptr, i32, i64, i64, ptr, ...) @H5E_printf_stack(ptr noundef nonnull @.str.1, ptr noundef nonnull @__func__.H5Pset_istore_k, i32 noundef 587, i64 noundef %27, i64 noundef %28, ptr noundef nonnull @.str.26) #6
  br label %.thread33

30:                                               ; preds = %23
  %31 = and i32 %1, 2147450880
  %.not = icmp eq i32 %31, 0
  br i1 %.not, label %36, label %32

32:                                               ; preds = %30
  %33 = load i64, ptr @H5E_ARGS_g, align 8
  %34 = load i64, ptr @H5E_BADVALUE_g, align 8
  %35 = tail call i32 (ptr, ptr, i32, i64, i64, ptr, ...) @H5E_printf_stack(ptr noundef nonnull @.str.1, ptr noundef nonnull @__func__.H5Pset_istore_k, i32 noundef 590, i64 noundef %33, i64 noundef %34, ptr noundef nonnull @.str.18) #6
  br label %.thread33

36:                                               ; preds = %30
  %37 = load i64, ptr @H5P_CLS_FILE_CREATE_ID_g, align 8
  %38 = tail call ptr @H5P_object_verify(i64 noundef %0, i64 noundef %37) #6
  %39 = icmp eq ptr %38, null
  br i1 %39, label %40, label %44

40:                                               ; preds = %36
  %41 = load i64, ptr @H5E_ID_g, align 8
  %42 = load i64, ptr @H5E_BADID_g, align 8
  %43 = tail call i32 (ptr, ptr, i32, i64, i64, ptr, ...) @H5E_printf_stack(ptr noundef nonnull @.str.1, ptr noundef nonnull @__func__.H5Pset_istore_k, i32 noundef 594, i64 noundef %41, i64 noundef %42, ptr noundef nonnull @.str.6) #6
  br label %.thread33

44:                                               ; preds = %36
  %45 = call i32 @H5P_get(ptr noundef nonnull %38, ptr noundef nonnull @.str.19, ptr noundef nonnull %3) #6
  %46 = icmp slt i32 %45, 0
  br i1 %46, label %47, label %51

47:                                               ; preds = %44
  %48 = load i64, ptr @H5E_PLIST_g, align 8
  %49 = load i64, ptr @H5E_CANTGET_g, align 8
  %50 = call i32 (ptr, ptr, i32, i64, i64, ptr, ...) @H5E_printf_stack(ptr noundef nonnull @.str.1, ptr noundef nonnull @__func__.H5Pset_istore_k, i32 noundef 598, i64 noundef %48, i64 noundef %49, ptr noundef nonnull @.str.20) #6
  br label %.thread33

51:                                               ; preds = %44
  %52 = getelementptr inbounds nuw i8, ptr %3, i64 4
  store i32 %1, ptr %52, align 4
  %53 = call i32 @H5P_set(ptr noundef nonnull %38, ptr noundef nonnull @.str.19, ptr noundef nonnull %3) #6
  %54 = icmp slt i32 %53, 0
  br i1 %54, label %55, label %60

55:                                               ; preds = %51
  %56 = load i64, ptr @H5E_PLIST_g, align 8
  %57 = load i64, ptr @H5E_CANTSET_g, align 8
  %58 = call i32 (ptr, ptr, i32, i64, i64, ptr, ...) @H5E_printf_stack(ptr noundef nonnull @.str.1, ptr noundef nonnull @__func__.H5Pset_istore_k, i32 noundef 601, i64 noundef %56, i64 noundef %57, ptr noundef nonnull @.str.27) #6
  br label %.thread33

.thread33:                                        ; preds = %55, %47, %40, %32, %26
  %59 = call i32 @H5CX_pop(i1 noundef zeroext true) #6
  br label %.thread27

60:                                               ; preds = %51
  %61 = call i32 @H5CX_pop(i1 noundef zeroext true) #6
  br label %63

.thread27:                                        ; preds = %19, %12, %.thread33
  %62 = call i32 @H5E_dump_api_stack() #6
  br label %63

63:                                               ; preds = %60, %.thread27
  %.0162230 = phi i32 [ -1, %.thread27 ], [ 0, %60 ]
  ret i32 %.0162230
}